target datalayout = "e-m:e-p270:32:32-p271:32:32-p272:64:64-i64:64-i128:128-f80:128-n8:16:32:64-S128"
target triple = "x86_64-pc-linux-gnu"

%"struct.WasmEdge::Host::WASI::FdHolder" = type <{ i32, i8, [3 x i8] }>
%"class.cxx20::unexpected" = type { i16 }
%"class.cxx20::expected.12" = type { %"struct.cxx20::detail::expected_move_assign_base.13" }
%"struct.cxx20::detail::expected_move_assign_base.13" = type { %"struct.cxx20::detail::expected_copy_assign_base.14" }
%"struct.cxx20::detail::expected_copy_assign_base.14" = type { %"struct.cxx20::detail::expected_move_base.15" }
%"struct.cxx20::detail::expected_move_base.15" = type { %"struct.cxx20::detail::expected_copy_base.16" }
%"struct.cxx20::detail::expected_copy_base.16" = type { %"struct.cxx20::detail::expected_operations_base.17" }
%"struct.cxx20::detail::expected_operations_base.17" = type { %"struct.cxx20::detail::expected_view_base.18" }
%"struct.cxx20::detail::expected_view_base.18" = type { %"struct.cxx20::detail::expected_storage_base.19" }
%"struct.cxx20::detail::expected_storage_base.19" = type { i8, %union.anon.20 }
%union.anon.20 = type { %"class.cxx20::unexpected" }

; Function Attrs: mustprogress nounwind uwtable
define linkonce_odr hidden void @_ZN5cxx2010unexpectedI14__wasi_errno_tEC2IS1_TnPNSt9enable_ifIXaaaa18is_constructible_vIS1_T_EntL_ZSt9is_same_vIS1_St10in_place_tEEntL_ZS6_IS1_S2_EEEvE4typeELPv0ELb1EEEOS5_(ptr noundef nonnull align 2 dereferenceable(2) %0, ptr noundef nonnull align 2 dereferenceable(2) %1) unnamed_addr #0 comdat align 2 {
  %3 = alloca ptr, align 8
  %4 = alloca ptr, align 8
  store ptr %0, ptr %3, align 8
  store ptr %1, ptr %4, align 8
  %5 = load ptr, ptr %3, align 8
  %6 = getelementptr inbounds %"class.cxx20::unexpected", ptr %5, i32 0, i32 0
  %7 = load ptr, ptr %4, align 8
  %8 = load i16, ptr %7, align 2
  store i16 %8, ptr %6, align 2
  ret void
}

; Function Attrs: mustprogress nounwind uwtable
define linkonce_odr hidden void @_ZN5cxx206detail21expected_storage_baseIv14__wasi_errno_tLb0ELb1EEC2IJS2_ETnPNSt9enable_ifIX18is_constructible_vIS2_DpT_EEvE4typeELPv0ELb1EEENS_10unexpect_tEDpOS6_(ptr noundef nonnull align 2 dereferenceable(4) %0, ptr noundef nonnull align 2 dereferenceable(2) %1) unnamed_addr #0 comdat align 2 {
  %3 = alloca ptr, align 8
  %4 = alloca ptr, align 8
  store ptr %0, ptr %3, align 8
  store ptr %1, ptr %4, align 8
  %5 = load ptr, ptr %3, align 8
  %6 = getelementptr inbounds %"struct.cxx20::detail::expected_storage_base.19", ptr %5, i32 0, i32 0
  store i8 0, ptr %6, align 2
  %7 = getelementptr inbounds %"struct.cxx20::detail::expected_storage_base.19", ptr %5, i32 0, i32 1
  %8 = load ptr, ptr %4, align 8
  call void @_ZN5cxx2010unexpectedI14__wasi_errno_tEC2IS1_TnPNSt9enable_ifIXaaaa18is_constructible_vIS1_T_EntL_ZSt9is_same_vIS1_St10in_place_tEEntL_ZS6_IS1_S2_EEEvE4typeELPv0ELb1EEEOS5_(ptr noundef nonnull align 2 dereferenceable(2) %7, ptr noundef nonnull align 2 dereferenceable(2) %8) #14
  ret void
}

; Function Attrs: mustprogress nounwind uwtable
define linkonce_odr hidden void @_ZN5cxx206detail21expected_storage_baseIv14__wasi_errno_tLb0ELb1EEC2Ev(ptr noundef nonnull align 2 dereferenceable(4) %0) unnamed_addr #0 comdat align 2 {
  %2 = alloca ptr, align 8
  store ptr %0, ptr %2, align 8
  %3 = load ptr, ptr %2, align 8
  %4 = getelementptr inbounds %"struct.cxx20::detail::expected_storage_base.19", ptr %3, i32 0, i32 0
  store i8 1, ptr %4, align 2
  %5 = getelementptr inbounds %"struct.cxx20::detail::expected_storage_base.19", ptr %3, i32 0, i32 1
  store i8 0, ptr %5, align 2
  ret void
}

; Function Attrs: mustprogress nounwind uwtable
define linkonce_odr hidden void @_ZN5cxx206detail18expected_view_baseIv14__wasi_errno_tECI2NS0_21expected_storage_baseIvS2_Lb0ELb1EEEIJS2_ETnPNSt9enable_ifIX18is_constructible_vIS2_DpT_EEvE4typeELPv0ELb1EEENS_10unexpect_tEDpOS6_(ptr noundef nonnull align 2 dereferenceable(4) %0, ptr noundef nonnull align 2 dereferenceable(2) %1) unnamed_addr #0 comdat align 2 {
  %3 = alloca ptr, align 8
  %4 = alloca ptr, align 8
  store ptr %0, ptr %3, align 8
  store ptr %1, ptr %4, align 8
  %5 = load ptr, ptr %3, align 8
  %6 = load ptr, ptr %4, align 8
  call void @_ZN5cxx206detail21expected_storage_baseIv14__wasi_errno_tLb0ELb1EEC2IJS2_ETnPNSt9enable_ifIX18is_constructible_vIS2_DpT_EEvE4typeELPv0ELb1EEENS_10unexpect_tEDpOS6_(ptr noundef nonnull align 2 dereferenceable(4) %5, ptr noundef nonnull align 2 dereferenceable(2) %6) #14
  ret void
}

; Function Attrs: mustprogress nounwind uwtable
define linkonce_odr hidden void @_ZN5cxx206detail18expected_view_baseIv14__wasi_errno_tEC2Ev(ptr noundef nonnull align 2 dereferenceable(4) %0) unnamed_addr #0 comdat align 2 {
  %2 = alloca ptr, align 8
  store ptr %0, ptr %2, align 8
  %3 = load ptr, ptr %2, align 8
  call void @_ZN5cxx206detail21expected_storage_baseIv14__wasi_errno_tLb0ELb1EEC2Ev(ptr noundef nonnull align 2 dereferenceable(4) %3) #14
  ret void
}

; Function Attrs: mustprogress nounwind uwtable
define linkonce_odr hidden void @_ZN5cxx206detail24expected_operations_baseIv14__wasi_errno_tECI2NS0_21expected_storage_baseIvS2_Lb0ELb1EEEIJS2_ETnPNSt9enable_ifIX18is_constructible_vIS2_DpT_EEvE4typeELPv0ELb1EEENS_10unexpect_tEDpOS6_(ptr noundef nonnull align 2 dereferenceable(4) %0, ptr noundef nonnull align 2 dereferenceable(2) %1) unnamed_addr #0 comdat align 2 {
  %3 = alloca ptr, align 8
  %4 = alloca ptr, align 8
  store ptr %0, ptr %3, align 8
  store ptr %1, ptr %4, align 8
  %5 = load ptr, ptr %3, align 8
  %6 = load ptr, ptr %4, align 8
  call void @_ZN5cxx206detail18expected_view_baseIv14__wasi_errno_tECI2NS0_21expected_storage_baseIvS2_Lb0ELb1EEEIJS2_ETnPNSt9enable_ifIX18is_constructible_vIS2_DpT_EEvE4typeELPv0ELb1EEENS_10unexpect_tEDpOS6_(ptr noundef nonnull align 2 dereferenceable(4) %5, ptr noundef nonnull align 2 dereferenceable(2) %6) #14
  ret void
}

; Function Attrs: mustprogress nounwind uwtable
define linkonce_odr hidden void @_ZN5cxx206detail24expected_operations_baseIv14__wasi_errno_tEC2Ev(ptr noundef nonnull align 2 dereferenceable(4) %0) unnamed_addr #0 comdat align 2 {
  %2 = alloca ptr, align 8
  store ptr %0, ptr %2, align 8
  %3 = load ptr, ptr %2, align 8
  call void @_ZN5cxx206detail18expected_view_baseIv14__wasi_errno_tEC2Ev(ptr noundef nonnull align 2 dereferenceable(4) %3) #14
  ret void
}

; Function Attrs: mustprogress nounwind uwtable
define linkonce_odr hidden void @_ZN5cxx206detail18expected_copy_baseIv14__wasi_errno_tLb1EECI2NS0_21expected_storage_baseIvS2_Lb0ELb1EEEIJS2_ETnPNSt9enable_ifIX18is_constructible_vIS2_DpT_EEvE4typeELPv0ELb1EEENS_10unexpect_tEDpOS6_(ptr noundef nonnull align 2 dereferenceable(4) %0, ptr noundef nonnull align 2 dereferenceable(2) %1) unnamed_addr #0 comdat align 2 {
  %3 = alloca ptr, align 8
  %4 = alloca ptr, align 8
  store ptr %0, ptr %3, align 8
  store ptr %1, ptr %4, align 8
  %5 = load ptr, ptr %3, align 8
  %6 = load ptr, ptr %4, align 8
  call void @_ZN5cxx206detail24expected_operations_baseIv14__wasi_errno_tECI2NS0_21expected_storage_baseIvS2_Lb0ELb1EEEIJS2_ETnPNSt9enable_ifIX18is_constructible_vIS2_DpT_EEvE4typeELPv0ELb1EEENS_10unexpect_tEDpOS6_(ptr noundef nonnull align 2 dereferenceable(4) %5, ptr noundef nonnull align 2 dereferenceable(2) %6) #14
  ret void
}

; Function Attrs: mustprogress nounwind uwtable
define linkonce_odr hidden void @_ZN5cxx206detail18expected_copy_baseIv14__wasi_errno_tLb1EEC2Ev(ptr noundef nonnull align 2 dereferenceable(4) %0) unnamed_addr #0 comdat align 2 {
  %2 = alloca ptr, align 8
  store ptr %0, ptr %2, align 8
  %3 = load ptr, ptr %2, align 8
  call void @_ZN5cxx206detail24expected_operations_baseIv14__wasi_errno_tEC2Ev(ptr noundef nonnull align 2 dereferenceable(4) %3) #14
  ret void
}

; Function Attrs: mustprogress nounwind uwtable
define linkonce_odr hidden void @_ZN5cxx206detail18expected_move_baseIv14__wasi_errno_tLb1EECI2NS0_21expected_storage_baseIvS2_Lb0ELb1EEEIJS2_ETnPNSt9enable_ifIX18is_constructible_vIS2_DpT_EEvE4typeELPv0ELb1EEENS_10unexpect_tEDpOS6_(ptr noundef nonnull align 2 dereferenceable(4) %0, ptr noundef nonnull align 2 dereferenceable(2) %1) unnamed_addr #0 comdat align 2 {
  %3 = alloca ptr, align 8
  %4 = alloca ptr, align 8
  store ptr %0, ptr %3, align 8
  store ptr %1, ptr %4, align 8
  %5 = load ptr, ptr %3, align 8
  %6 = load ptr, ptr %4, align 8
  call void @_ZN5cxx206detail18expected_copy_baseIv14__wasi_errno_tLb1EECI2NS0_21expected_storage_baseIvS2_Lb0ELb1EEEIJS2_ETnPNSt9enable_ifIX18is_constructible_vIS2_DpT_EEvE4typeELPv0ELb1EEENS_10unexpect_tEDpOS6_(ptr noundef nonnull align 2 dereferenceable(4) %5, ptr noundef nonnull align 2 dereferenceable(2) %6) #14
  ret void
}

; Function Attrs: mustprogress nounwind uwtable
define linkonce_odr hidden void @_ZN5cxx206detail18expected_move_baseIv14__wasi_errno_tLb1EEC2Ev(ptr noundef nonnull align 2 dereferenceable(4) %0) unnamed_addr #0 comdat align 2 {
  %2 = alloca ptr, align 8
  store ptr %0, ptr %2, align 8
  %3 = load ptr, ptr %2, align 8
  call void @_ZN5cxx206detail18expected_copy_baseIv14__wasi_errno_tLb1EEC2Ev(ptr noundef nonnull align 2 dereferenceable(4) %3) #14
  ret void
}

; Function Attrs: mustprogress nounwind uwtable
define linkonce_odr hidden void @_ZN5cxx206detail25expected_copy_assign_baseIv14__wasi_errno_tLb1EECI2NS0_21expected_storage_baseIvS2_Lb0ELb1EEEIJS2_ETnPNSt9enable_ifIX18is_constructible_vIS2_DpT_EEvE4typeELPv0ELb1EEENS_10unexpect_tEDpOS6_(ptr noundef nonnull align 2 dereferenceable(4) %0, ptr noundef nonnull align 2 dereferenceable(2) %1) unnamed_addr #0 comdat align 2 {
  %3 = alloca ptr, align 8
  %4 = alloca ptr, align 8
  store ptr %0, ptr %3, align 8
  store ptr %1, ptr %4, align 8
  %5 = load ptr, ptr %3, align 8
  %6 = load ptr, ptr %4, align 8
  call void @_ZN5cxx206detail18expected_move_baseIv14__wasi_errno_tLb1EECI2NS0_21expected_storage_baseIvS2_Lb0ELb1EEEIJS2_ETnPNSt9enable_ifIX18is_constructible_vIS2_DpT_EEvE4typeELPv0ELb1EEENS_10unexpect_tEDpOS6_(ptr noundef nonnull align 2 dereferenceable(4) %5, ptr noundef nonnull align 2 dereferenceable(2) %6) #14
  ret void
}

; Function Attrs: mustprogress nounwind uwtable
define linkonce_odr hidden void @_ZN5cxx206detail25expected_copy_assign_baseIv14__wasi_errno_tLb1EEC2Ev(ptr noundef nonnull align 2 dereferenceable(4) %0) unnamed_addr #0 comdat align 2 {
  %2 = alloca ptr, align 8
  store ptr %0, ptr %2, align 8
  %3 = load ptr, ptr %2, align 8
  call void @_ZN5cxx206detail18expected_move_baseIv14__wasi_errno_tLb1EEC2Ev(ptr noundef nonnull align 2 dereferenceable(4) %3) #14
  ret void
}

; Function Attrs: mustprogress nounwind uwtable
define linkonce_odr hidden void @_ZN5cxx206detail26expected_default_ctor_baseIv14__wasi_errno_tLb1EEC2ESt10in_place_t(ptr noundef nonnull align 1 dereferenceable(1) %0) unnamed_addr #0 comdat align 2 {
  %2 = alloca ptr, align 8
  store ptr %0, ptr %2, align 8
  ret void
}

; Function Attrs: mustprogress nounwind uwtable
define linkonce_odr hidden void @_ZN5cxx206detail25expected_move_assign_baseIv14__wasi_errno_tLb1EECI2NS0_21expected_storage_baseIvS2_Lb0ELb1EEEIJS2_ETnPNSt9enable_ifIX18is_constructible_vIS2_DpT_EEvE4typeELPv0ELb1EEENS_10unexpect_tEDpOS6_(ptr noundef nonnull align 2 dereferenceable(4) %0, ptr noundef nonnull align 2 dereferenceable(2) %1) unnamed_addr #0 comdat align 2 {
  %3 = alloca ptr, align 8
  %4 = alloca ptr, align 8
  store ptr %0, ptr %3, align 8
  store ptr %1, ptr %4, align 8
  %5 = load ptr, ptr %3, align 8
  %6 = load ptr, ptr %4, align 8
  call void @_ZN5cxx206detail25expected_copy_assign_baseIv14__wasi_errno_tLb1EECI2NS0_21expected_storage_baseIvS2_Lb0ELb1EEEIJS2_ETnPNSt9enable_ifIX18is_constructible_vIS2_DpT_EEvE4typeELPv0ELb1EEENS_10unexpect_tEDpOS6_(ptr noundef nonnull align 2 dereferenceable(4) %5, ptr noundef nonnull align 2 dereferenceable(2) %6) #14
  ret void
}

; Function Attrs: mustprogress nounwind uwtable
define linkonce_odr hidden void @_ZN5cxx206detail25expected_move_assign_baseIv14__wasi_errno_tLb1EEC2Ev(ptr noundef nonnull align 2 dereferenceable(4) %0) unnamed_addr #0 comdat align 2 {
  %2 = alloca ptr, align 8
  store ptr %0, ptr %2, align 8
  %3 = load ptr, ptr %2, align 8
  call void @_ZN5cxx206detail25expected_copy_assign_baseIv14__wasi_errno_tLb1EEC2Ev(ptr noundef nonnull align 2 dereferenceable(4) %3) #14
  ret void
}

; Function Attrs: mustprogress nounwind uwtable
define linkonce_odr hidden void @_ZN5cxx208expectedIv14__wasi_errno_tEC2IJS1_ETnPNSt9enable_ifIX18is_constructible_vIS1_DpT_EEvE4typeELPv0ELb1EEENS_10unexpect_tEDpOS5_(ptr noundef nonnull align 2 dereferenceable(4) %0, ptr noundef nonnull align 2 dereferenceable(2) %1) unnamed_addr #0 comdat align 2 personality ptr @__gxx_personality_v0 {
  %3 = alloca ptr, align 8
  %4 = alloca ptr, align 8
  store ptr %0, ptr %3, align 8
  store ptr %1, ptr %4, align 8
  %5 = load ptr, ptr %3, align 8
  %6 = load ptr, ptr %4, align 8
  call void @_ZN5cxx206detail25expected_move_assign_baseIv14__wasi_errno_tLb1EECI2NS0_21expected_storage_baseIvS2_Lb0ELb1EEEIJS2_ETnPNSt9enable_ifIX18is_constructible_vIS2_DpT_EEvE4typeELPv0ELb1EEENS_10unexpect_tEDpOS6_(ptr noundef nonnull align 2 dereferenceable(4) %5, ptr noundef nonnull align 2 dereferenceable(2) %6) #14
  invoke void @_ZN5cxx206detail26expected_default_ctor_baseIv14__wasi_errno_tLb1EEC2ESt10in_place_t(ptr noundef nonnull align 1 dereferenceable(1) %5)
          to label %7 unwind label %8

7:                                                ; preds = %2
  ret void

8:                                                ; preds = %2
  %9 = landingpad { ptr, i32 }
          catch ptr null
  %10 = extractvalue { ptr, i32 } %9, 0
  call void @__clang_call_terminate(ptr %10) #15
  unreachable
}

; Function Attrs: mustprogress nounwind uwtable
define linkonce_odr hidden noundef nonnull align 2 dereferenceable(2) ptr @_ZNR5cxx2010unexpectedI14__wasi_errno_tE5valueEv(ptr noundef nonnull align 2 dereferenceable(2) %0) #0 comdat align 2 {
  %2 = alloca ptr, align 8
  store ptr %0, ptr %2, align 8
  %3 = load ptr, ptr %2, align 8
  %4 = getelementptr inbounds %"class.cxx20::unexpected", ptr %3, i32 0, i32 0
  ret ptr %4
}

; Function Attrs: mustprogress nounwind uwtable
define linkonce_odr hidden void @_ZN5cxx2010unexpectedI14__wasi_errno_tEC2IRS1_TnPNSt9enable_ifIXaaaa18is_constructible_vIS1_T_EntL_ZSt9is_same_vIS1_St10in_place_tEEntL_ZS7_IS1_S2_EEEvE4typeELPv0ELb1EEEOS6_(ptr noundef nonnull align 2 dereferenceable(2) %0, ptr noundef nonnull align 2 dereferenceable(2) %1) unnamed_addr #0 comdat align 2 {
  %3 = alloca ptr, align 8
  %4 = alloca ptr, align 8
  store ptr %0, ptr %3, align 8
  store ptr %1, ptr %4, align 8
  %5 = load ptr, ptr %3, align 8
  %6 = getelementptr inbounds %"class.cxx20::unexpected", ptr %5, i32 0, i32 0
  %7 = load ptr, ptr %4, align 8
  %8 = load i16, ptr %7, align 2
  store i16 %8, ptr %6, align 2
  ret void
}

; Function Attrs: noreturn nounwind uwtable
define linkonce_odr hidden void @__clang_call_terminate(ptr noundef %0) #2 comdat {
  %2 = call ptr @__cxa_begin_catch(ptr %0) #14
  call void @_ZSt9terminatev() #15
  unreachable
}

; Function Attrs: mustprogress nounwind uwtable
define linkonce_odr hidden void @_ZN5cxx208expectedIv14__wasi_errno_tEC2Ev(ptr noundef nonnull align 2 dereferenceable(4) %0) unnamed_addr #0 comdat align 2 {
  %2 = alloca ptr, align 8
  store ptr %0, ptr %2, align 8
  %3 = load ptr, ptr %2, align 8
  call void @_ZN5cxx206detail25expected_move_assign_baseIv14__wasi_errno_tLb1EEC2Ev(ptr noundef nonnull align 2 dereferenceable(4) %3) #14
  ret void
}

; Function Attrs: mustprogress nounwind uwtable
define linkonce_odr hidden void @_ZN5cxx208expectedIv14__wasi_errno_tEC2IS1_TnPNSt9enable_ifIX18is_constructible_vIS1_OT_EEvE4typeELPv0EEEONS_10unexpectedIS5_EE(ptr noundef nonnull align 2 dereferenceable(4) %0, ptr noundef nonnull align 2 dereferenceable(2) %1) unnamed_addr #0 comdat align 2 {
  %3 = alloca ptr, align 8
  %4 = alloca ptr, align 8
  store ptr %0, ptr %3, align 8
  store ptr %1, ptr %4, align 8
  %5 = load ptr, ptr %3, align 8
  %6 = load ptr, ptr %4, align 8
  %7 = call noundef nonnull align 2 dereferenceable(2) ptr @_ZNR5cxx2010unexpectedI14__wasi_errno_tE5valueEv(ptr noundef nonnull align 2 dereferenceable(2) %6) #14
  call void @_ZN5cxx208expectedIv14__wasi_errno_tEC2IJS1_ETnPNSt9enable_ifIX18is_constructible_vIS1_DpT_EEvE4typeELPv0ELb1EEENS_10unexpect_tEDpOS5_(ptr noundef nonnull align 2 dereferenceable(4) %5, ptr noundef nonnull align 2 dereferenceable(2) %7) #14
  ret void
}

; Function Attrs: mustprogress nounwind uwtable
define linkonce_odr hidden i16 @_ZN8WasmEdge4Host4WASI12WasiUnexpectE14__wasi_errno_t(i16 noundef zeroext %0) #0 comdat {
  %2 = alloca %"class.cxx20::unexpected", align 2
  %3 = alloca i16, align 2
  store i16 %0, ptr %3, align 2
  call void @_ZN5cxx2010unexpectedI14__wasi_errno_tEC2IRS1_TnPNSt9enable_ifIXaaaa18is_constructible_vIS1_T_EntL_ZSt9is_same_vIS1_St10in_place_tEEntL_ZS7_IS1_S2_EEEvE4typeELPv0ELb1EEEOS6_(ptr noundef nonnull align 2 dereferenceable(2) %2, ptr noundef nonnull align 2 dereferenceable(2) %3) #14
  %4 = getelementptr inbounds %"class.cxx20::unexpected", ptr %2, i32 0, i32 0
  %5 = load i16, ptr %4, align 2
  ret i16 %5
}

; Function Attrs: mustprogress nounwind uwtable
define internal noundef zeroext i1 @_ZN8WasmEdgeL8unlikelyEb(i1 noundef zeroext %0) #0 {
  %2 = alloca i8, align 1
  %3 = zext i1 %0 to i8
  store i8 %3, ptr %2, align 1
  %4 = load i8, ptr %2, align 1
  %5 = trunc i8 %4 to i1
  ret i1 %5
}

; Function Attrs: mustprogress nounwind uwtable
define linkonce_odr hidden noundef i32 @_ZN8WasmEdge4Host4WASI6detail8toAdviceE15__wasi_advice_t(i8 noundef zeroext %0) #0 comdat {
  %2 = alloca i32, align 4
  %3 = alloca i8, align 1
  store i8 %0, ptr %3, align 1
  %4 = load i8, ptr %3, align 1
  %5 = zext i8 %4 to i32
  switch i32 %5, label %12 [
    i32 0, label %6
    i32 1, label %7
    i32 2, label %8
    i32 3, label %9
    i32 4, label %10
    i32 5, label %11
  ]

6:                                                ; preds = %1
  store i32 0, ptr %2, align 4
  br label %13

7:                                                ; preds = %1
  store i32 2, ptr %2, align 4
  br label %13

8:                                                ; preds = %1
  store i32 1, ptr %2, align 4
  br label %13

9:                                                ; preds = %1
  store i32 3, ptr %2, align 4
  br label %13

10:                                               ; preds = %1
  store i32 4, ptr %2, align 4
  br label %13

11:                                               ; preds = %1
  store i32 5, ptr %2, align 4
  br label %13

12:                                               ; preds = %1
  unreachable

13:                                               ; preds = %11, %10, %9, %8, %7, %6
  %14 = load i32, ptr %2, align 4
  ret i32 %14
}

; Function Attrs: mustprogress nounwind uwtable
define i32 @_ZNK8WasmEdge4Host4WASI5INode8fdAdviseEmm15__wasi_advice_t(ptr noundef nonnull align 8 dereferenceable(200) %0, i64 noundef %1, i64 noundef %2, i8 noundef zeroext %3) #0 align 2 personality ptr @__gxx_personality_v0 {
  %5 = alloca %"class.cxx20::expected.12", align 2
  %6 = alloca ptr, align 8
  %7 = alloca i64, align 8
  %8 = alloca i64, align 8
  %9 = alloca i8, align 1
  %10 = alloca i32, align 4
  %11 = alloca %"class.cxx20::unexpected", align 2
  store ptr %0, ptr %6, align 8
  store i64 %1, ptr %7, align 8
  store i64 %2, ptr %8, align 8
  store i8 %3, ptr %9, align 1
  %12 = load ptr, ptr %6, align 8
  %13 = getelementptr inbounds %"struct.WasmEdge::Host::WASI::FdHolder", ptr %12, i32 0, i32 0
  %14 = load i32, ptr %13, align 8
  %15 = load i64, ptr %7, align 8
  %16 = load i64, ptr %8, align 8
  %17 = load i8, ptr %9, align 1
  %18 = call noundef i32 @_ZN8WasmEdge4Host4WASI6detail8toAdviceE15__wasi_advice_t(i8 noundef zeroext %17) #14
  %19 = call i32 @posix_fadvise(i32 noundef %14, i64 noundef %15, i64 noundef %16, i32 noundef %18) #14
  store i32 %19, ptr %10, align 4
  %20 = load i32, ptr %10, align 4
  %21 = icmp ne i32 %20, 0
  %22 = call noundef zeroext i1 @_ZN8WasmEdgeL8unlikelyEb(i1 noundef zeroext %21) #14
  br i1 %22, label %23, label %31

23:                                               ; preds = %4
  %24 = call ptr @__errno_location() #16
  %25 = load i32, ptr %24, align 4
  %26 = call noundef zeroext i16 @_ZN8WasmEdge4Host4WASI6detail9fromErrNoEi(i32 noundef %25) #14
  %27 = invoke i16 @_ZN8WasmEdge4Host4WASI12WasiUnexpectE14__wasi_errno_t(i16 noundef zeroext %26)
          to label %28 unwind label %41

28:                                               ; preds = %23
  %29 = getelementptr inbounds %"class.cxx20::unexpected", ptr %11, i32 0, i32 0
  store i16 %27, ptr %29, align 2
  invoke void @_ZN5cxx208expectedIv14__wasi_errno_tEC2IS1_TnPNSt9enable_ifIX18is_constructible_vIS1_OT_EEvE4typeELPv0EEEONS_10unexpectedIS5_EE(ptr noundef nonnull align 2 dereferenceable(4) %5, ptr noundef nonnull align 2 dereferenceable(2) %11)
          to label %30 unwind label %41

30:                                               ; preds = %28
  br label %32

31:                                               ; preds = %4
  call void @llvm.memset.p0.i64(ptr align 2 %5, i8 0, i64 4, i1 false)
  call void @_ZN5cxx208expectedIv14__wasi_errno_tEC2Ev(ptr noundef nonnull align 2 dereferenceable(4) %5) #14
  br label %32

32:                                               ; preds = %31, %30
  %33 = getelementptr inbounds %"class.cxx20::expected.12", ptr %5, i32 0, i32 0
  %34 = getelementptr inbounds %"struct.cxx20::detail::expected_move_assign_base.13", ptr %33, i32 0, i32 0
  %35 = getelementptr inbounds %"struct.cxx20::detail::expected_copy_assign_base.14", ptr %34, i32 0, i32 0
  %36 = getelementptr inbounds %"struct.cxx20::detail::expected_move_base.15", ptr %35, i32 0, i32 0
  %37 = getelementptr inbounds %"struct.cxx20::detail::expected_copy_base.16", ptr %36, i32 0, i32 0
  %38 = getelementptr inbounds %"struct.cxx20::detail::expected_operations_base.17", ptr %37, i32 0, i32 0
  %39 = getelementptr inbounds %"struct.cxx20::detail::expected_view_base.18", ptr %38, i32 0, i32 0
  %40 = load i32, ptr %39, align 2
  ret i32 %40

41:                                               ; preds = %28, %23
  %42 = landingpad { ptr, i32 }
          catch ptr null
  %43 = extractvalue { ptr, i32 } %42, 0
  call void @__clang_call_terminate(ptr %43) #15
  unreachable
}