; Function Attrs: mustprogress nounwind uwtable
define range(i32 0, -65535) i32 @_ZNK8WasmEdge4Host4WASI5INode8fdAdviseEmm15__wasi_advice_t(ptr noundef nonnull readonly align 8 captures(none) dereferenceable(200) %0, i64 noundef %1, i64 noundef %2, i8 noundef zeroext %3) local_unnamed_addr #0 align 2 personality ptr @__gxx_personality_v0 {
switch.lookup:
  %4 = load i32, ptr %0, align 8
  %5 = sext i8 %3 to i64
  %switch.gep = getelementptr inbounds [6 x i32], ptr @switch.table._ZNK8WasmEdge4Host4WASI5INode8fdAdviseEmm15__wasi_advice_t, i64 0, i64 %5
  %switch.load = load i32, ptr %switch.gep, align 4
  %6 = tail call i32 @posix_fadvise(i32 noundef %4, i64 noundef %1, i64 noundef %2, i32 noundef %switch.load) #24
  %.not = icmp eq i32 %6, 0
  br i1 %.not, label %13, label %7

7:                                                ; preds = %switch.lookup
  %8 = tail call ptr @__errno_location() #25
  %9 = load i32, ptr %8, align 4
  %10 = tail call noundef zeroext i16 @_ZN8WasmEdge4Host4WASI6detail9fromErrNoEi(i32 noundef %9) #24
  %11 = zext i16 %10 to i32
  %12 = shl nuw i32 %11, 16
  br label %13

13:                                               ; preds = %switch.lookup, %7
  %.sroa.04.0.insert.insert = phi i32 [ %12, %7 ], [ 1, %switch.lookup ]
  ret i32 %.sroa.04.0.insert.insert
}